; Function Attrs: nounwind uwtable
define void @png_set_cHRM_fixed(ptr noalias noundef %0, ptr noalias noundef %1, i32 noundef %2, i32 noundef %3, i32 noundef %4, i32 noundef %5, i32 noundef %6, i32 noundef %7, i32 noundef %8, i32 noundef %9) local_unnamed_addr #2 {
  %11 = alloca %struct.png_xy, align 4
  %12 = icmp eq ptr %0, null
  %13 = icmp eq ptr %1, null
  %or.cond = or i1 %12, %13
  br i1 %or.cond, label %29, label %14

14:                                               ; preds = %10
  store i32 %4, ptr %11, align 4
  %15 = getelementptr inbounds i8, ptr %11, i64 4
  store i32 %5, ptr %15, align 4
  %16 = getelementptr inbounds i8, ptr %11, i64 8
  store i32 %6, ptr %16, align 4
  %17 = getelementptr inbounds i8, ptr %11, i64 12
  store i32 %7, ptr %17, align 4
  %18 = getelementptr inbounds i8, ptr %11, i64 16
  store i32 %8, ptr %18, align 4
  %19 = getelementptr inbounds i8, ptr %11, i64 20
  store i32 %9, ptr %19, align 4
  %20 = getelementptr inbounds i8, ptr %11, i64 24
  store i32 %2, ptr %20, align 4
  %21 = getelementptr inbounds i8, ptr %11, i64 28
  store i32 %3, ptr %21, align 4
  %22 = getelementptr inbounds i8, ptr %1, i64 52
  %23 = call i32 @png_colorspace_set_chromaticities(ptr noundef nonnull %0, ptr noundef nonnull %22, ptr noundef nonnull %11, i32 noundef 2) #12
  %.not = icmp eq i32 %23, 0
  br i1 %.not, label %28, label %24

24:                                               ; preds = %14
  %25 = getelementptr inbounds i8, ptr %1, i64 126
  %26 = load i16, ptr %25, align 2
  %27 = or i16 %26, 16
  store i16 %27, ptr %25, align 2
  br label %28

28:                                               ; preds = %24, %14
  call void @png_colorspace_sync_info(ptr noundef nonnull %0, ptr noundef nonnull %1) #12
  br label %29

29:                                               ; preds = %10, %28
  ret void
}